target datalayout = "e-m:e-p270:32:32-p271:32:32-p272:64:64-i64:64-i128:128-f80:128-n8:16:32:64-S128"
target triple = "x86_64-unknown-linux-gnu"

%struct.QEnumLookup = type { ptr, ptr, i32 }
%struct.RbdEncryptionOptionsLUKSBase = type { ptr }
%struct.q_obj_RbdEncryptionOptions_base = type { i32, ptr }
%struct.RbdEncryptionOptions = type { i32, ptr, %union.anon.9 }
%union.anon.9 = type { %struct.RbdEncryptionOptionsLUKS }
%struct.RbdEncryptionOptionsLUKS = type { ptr }

@.str.10 = private unnamed_addr constant [7 x i8] c"format\00", align 1
@.str.174 = private unnamed_addr constant [7 x i8] c"parent\00", align 1
@.str.283 = private unnamed_addr constant [11 x i8] c"key-secret\00", align 1
@RbdImageEncryptionFormat_lookup = external constant %struct.QEnumLookup, align 8

; Function Attrs: nounwind sspstrong uwtable
define dso_local zeroext i1 @visit_type_RbdEncryptionOptionsLUKSBase_members(ptr noundef %v, ptr noundef %obj, ptr noundef %errp) #0 {
entry:
  %retval = alloca i1, align 1
  %v.addr = alloca ptr, align 8
  %obj.addr = alloca ptr, align 8
  %errp.addr = alloca ptr, align 8
  store ptr %v, ptr %v.addr, align 8
  store ptr %obj, ptr %obj.addr, align 8
  store ptr %errp, ptr %errp.addr, align 8
  %0 = load ptr, ptr %v.addr, align 8
  %1 = load ptr, ptr %obj.addr, align 8
  %key_secret = getelementptr inbounds %struct.RbdEncryptionOptionsLUKSBase, ptr %1, i32 0, i32 0
  %2 = load ptr, ptr %errp.addr, align 8
  %call = call zeroext i1 @visit_type_str(ptr noundef %0, ptr noundef @.str.283, ptr noundef %key_secret, ptr noundef %2)
  br i1 %call, label %if.end, label %if.then

if.then:                                          ; preds = %entry
  store i1 false, ptr %retval, align 1
  br label %return

if.end:                                           ; preds = %entry
  store i1 true, ptr %retval, align 1
  br label %return

return:                                           ; preds = %if.end, %if.then
  %3 = load i1, ptr %retval, align 1
  ret i1 %3
}

; Function Attrs: nounwind sspstrong uwtable
define dso_local zeroext i1 @visit_type_RbdImageEncryptionFormat(ptr noundef %v, ptr noundef %name, ptr noundef %obj, ptr noundef %errp) #0 {
entry:
  %v.addr = alloca ptr, align 8
  %name.addr = alloca ptr, align 8
  %obj.addr = alloca ptr, align 8
  %errp.addr = alloca ptr, align 8
  %value = alloca i32, align 4
  %ok = alloca i8, align 1
  store ptr %v, ptr %v.addr, align 8
  store ptr %name, ptr %name.addr, align 8
  store ptr %obj, ptr %obj.addr, align 8
  store ptr %errp, ptr %errp.addr, align 8
  %0 = load ptr, ptr %obj.addr, align 8
  %1 = load i32, ptr %0, align 4
  store i32 %1, ptr %value, align 4
  %2 = load ptr, ptr %v.addr, align 8
  %3 = load ptr, ptr %name.addr, align 8
  %4 = load ptr, ptr %errp.addr, align 8
  %call = call zeroext i1 @visit_type_enum(ptr noundef %2, ptr noundef %3, ptr noundef %value, ptr noundef @RbdImageEncryptionFormat_lookup, ptr noundef %4)
  %frombool = zext i1 %call to i8
  store i8 %frombool, ptr %ok, align 1
  %5 = load i32, ptr %value, align 4
  %6 = load ptr, ptr %obj.addr, align 8
  store i32 %5, ptr %6, align 4
  %7 = load i8, ptr %ok, align 1
  %tobool = trunc i8 %7 to i1
  ret i1 %tobool
}

; Function Attrs: nounwind sspstrong uwtable
define dso_local zeroext i1 @visit_type_RbdEncryptionOptionsLUKSAny_members(ptr noundef %v, ptr noundef %obj, ptr noundef %errp) #0 {
entry:
  %retval = alloca i1, align 1
  %v.addr = alloca ptr, align 8
  %obj.addr = alloca ptr, align 8
  %errp.addr = alloca ptr, align 8
  store ptr %v, ptr %v.addr, align 8
  store ptr %obj, ptr %obj.addr, align 8
  store ptr %errp, ptr %errp.addr, align 8
  %0 = load ptr, ptr %v.addr, align 8
  %1 = load ptr, ptr %obj.addr, align 8
  %2 = load ptr, ptr %errp.addr, align 8
  %call = call zeroext i1 @visit_type_RbdEncryptionOptionsLUKSBase_members(ptr noundef %0, ptr noundef %1, ptr noundef %2)
  br i1 %call, label %if.end, label %if.then

if.then:                                          ; preds = %entry
  store i1 false, ptr %retval, align 1
  br label %return

if.end:                                           ; preds = %entry
  store i1 true, ptr %retval, align 1
  br label %return

return:                                           ; preds = %if.end, %if.then
  %3 = load i1, ptr %retval, align 1
  ret i1 %3
}

; Function Attrs: nounwind sspstrong uwtable
define dso_local zeroext i1 @visit_type_RbdEncryptionOptionsLUKS2_members(ptr noundef %v, ptr noundef %obj, ptr noundef %errp) #0 {
entry:
  %retval = alloca i1, align 1
  %v.addr = alloca ptr, align 8
  %obj.addr = alloca ptr, align 8
  %errp.addr = alloca ptr, align 8
  store ptr %v, ptr %v.addr, align 8
  store ptr %obj, ptr %obj.addr, align 8
  store ptr %errp, ptr %errp.addr, align 8
  %0 = load ptr, ptr %v.addr, align 8
  %1 = load ptr, ptr %obj.addr, align 8
  %2 = load ptr, ptr %errp.addr, align 8
  %call = call zeroext i1 @visit_type_RbdEncryptionOptionsLUKSBase_members(ptr noundef %0, ptr noundef %1, ptr noundef %2)
  br i1 %call, label %if.end, label %if.then

if.then:                                          ; preds = %entry
  store i1 false, ptr %retval, align 1
  br label %return

if.end:                                           ; preds = %entry
  store i1 true, ptr %retval, align 1
  br label %return

return:                                           ; preds = %if.end, %if.then
  %3 = load i1, ptr %retval, align 1
  ret i1 %3
}

; Function Attrs: nounwind sspstrong uwtable
define dso_local zeroext i1 @visit_type_RbdEncryptionOptionsLUKS_members(ptr noundef %v, ptr noundef %obj, ptr noundef %errp) #0 {
entry:
  %retval = alloca i1, align 1
  %v.addr = alloca ptr, align 8
  %obj.addr = alloca ptr, align 8
  %errp.addr = alloca ptr, align 8
  store ptr %v, ptr %v.addr, align 8
  store ptr %obj, ptr %obj.addr, align 8
  store ptr %errp, ptr %errp.addr, align 8
  %0 = load ptr, ptr %v.addr, align 8
  %1 = load ptr, ptr %obj.addr, align 8
  %2 = load ptr, ptr %errp.addr, align 8
  %call = call zeroext i1 @visit_type_RbdEncryptionOptionsLUKSBase_members(ptr noundef %0, ptr noundef %1, ptr noundef %2)
  br i1 %call, label %if.end, label %if.then

if.then:                                          ; preds = %entry
  store i1 false, ptr %retval, align 1
  br label %return

if.end:                                           ; preds = %entry
  store i1 true, ptr %retval, align 1
  br label %return

return:                                           ; preds = %if.end, %if.then
  %3 = load i1, ptr %retval, align 1
  ret i1 %3
}

; Function Attrs: nounwind sspstrong uwtable
define dso_local zeroext i1 @visit_type_q_obj_RbdEncryptionOptions_base_members(ptr noundef %v, ptr noundef %obj, ptr noundef %errp) #0 {
entry:
  %retval = alloca i1, align 1
  %v.addr = alloca ptr, align 8
  %obj.addr = alloca ptr, align 8
  %errp.addr = alloca ptr, align 8
  %has_parent = alloca i8, align 1
  store ptr %v, ptr %v.addr, align 8
  store ptr %obj, ptr %obj.addr, align 8
  store ptr %errp, ptr %errp.addr, align 8
  %0 = load ptr, ptr %obj.addr, align 8
  %parent = getelementptr inbounds %struct.q_obj_RbdEncryptionOptions_base, ptr %0, i32 0, i32 1
  %1 = load ptr, ptr %parent, align 8
  %tobool = icmp ne ptr %1, null
  %lnot = xor i1 %tobool, true
  %lnot1 = xor i1 %lnot, true
  %frombool = zext i1 %lnot1 to i8
  store i8 %frombool, ptr %has_parent, align 1
  %2 = load ptr, ptr %v.addr, align 8
  %3 = load ptr, ptr %obj.addr, align 8
  %format = getelementptr inbounds %struct.q_obj_RbdEncryptionOptions_base, ptr %3, i32 0, i32 0
  %4 = load ptr, ptr %errp.addr, align 8
  %call = call zeroext i1 @visit_type_RbdImageEncryptionFormat(ptr noundef %2, ptr noundef @.str.10, ptr noundef %format, ptr noundef %4)
  br i1 %call, label %if.end, label %if.then

if.then:                                          ; preds = %entry
  store i1 false, ptr %retval, align 1
  br label %return

if.end:                                           ; preds = %entry
  %5 = load ptr, ptr %v.addr, align 8
  %call2 = call zeroext i1 @visit_optional(ptr noundef %5, ptr noundef @.str.174, ptr noundef %has_parent)
  br i1 %call2, label %if.then3, label %if.end8

if.then3:                                         ; preds = %if.end
  %6 = load ptr, ptr %v.addr, align 8
  %7 = load ptr, ptr %obj.addr, align 8
  %parent4 = getelementptr inbounds %struct.q_obj_RbdEncryptionOptions_base, ptr %7, i32 0, i32 1
  %8 = load ptr, ptr %errp.addr, align 8
  %call5 = call zeroext i1 @visit_type_RbdEncryptionOptions(ptr noundef %6, ptr noundef @.str.174, ptr noundef %parent4, ptr noundef %8)
  br i1 %call5, label %if.end7, label %if.then6

if.then6:                                         ; preds = %if.then3
  store i1 false, ptr %retval, align 1
  br label %return

if.end7:                                          ; preds = %if.then3
  br label %if.end8

if.end8:                                          ; preds = %if.end7, %if.end
  store i1 true, ptr %retval, align 1
  br label %return

return:                                           ; preds = %if.end8, %if.then6, %if.then
  %9 = load i1, ptr %retval, align 1
  ret i1 %9
}

; Function Attrs: nounwind sspstrong uwtable
define dso_local zeroext i1 @visit_type_RbdEncryptionOptions_members(ptr noundef %v, ptr noundef %obj, ptr noundef %errp) #0 {
entry:
  %retval = alloca i1, align 1
  %v.addr = alloca ptr, align 8
  %obj.addr = alloca ptr, align 8
  %errp.addr = alloca ptr, align 8
  store ptr %v, ptr %v.addr, align 8
  store ptr %obj, ptr %obj.addr, align 8
  store ptr %errp, ptr %errp.addr, align 8
  %0 = load ptr, ptr %v.addr, align 8
  %1 = load ptr, ptr %obj.addr, align 8
  %2 = load ptr, ptr %errp.addr, align 8
  %call = call zeroext i1 @visit_type_q_obj_RbdEncryptionOptions_base_members(ptr noundef %0, ptr noundef %1, ptr noundef %2)
  br i1 %call, label %if.end, label %if.then

if.then:                                          ; preds = %entry
  store i1 false, ptr %retval, align 1
  br label %return

if.end:                                           ; preds = %entry
  %3 = load ptr, ptr %obj.addr, align 8
  %format = getelementptr inbounds %struct.RbdEncryptionOptions, ptr %3, i32 0, i32 0
  %4 = load i32, ptr %format, align 8
  switch i32 %4, label %sw.default [
    i32 0, label %sw.bb
    i32 1, label %sw.bb2
    i32 2, label %sw.bb5
  ]

sw.bb:                                            ; preds = %if.end
  %5 = load ptr, ptr %v.addr, align 8
  %6 = load ptr, ptr %obj.addr, align 8
  %u = getelementptr inbounds %struct.RbdEncryptionOptions, ptr %6, i32 0, i32 2
  %7 = load ptr, ptr %errp.addr, align 8
  %call1 = call zeroext i1 @visit_type_RbdEncryptionOptionsLUKS_members(ptr noundef %5, ptr noundef %u, ptr noundef %7)
  store i1 %call1, ptr %retval, align 1
  br label %return

sw.bb2:                                           ; preds = %if.end
  %8 = load ptr, ptr %v.addr, align 8
  %9 = load ptr, ptr %obj.addr, align 8
  %u3 = getelementptr inbounds %struct.RbdEncryptionOptions, ptr %9, i32 0, i32 2
  %10 = load ptr, ptr %errp.addr, align 8
  %call4 = call zeroext i1 @visit_type_RbdEncryptionOptionsLUKS2_members(ptr noundef %8, ptr noundef %u3, ptr noundef %10)
  store i1 %call4, ptr %retval, align 1
  br label %return

sw.bb5:                                           ; preds = %if.end
  %11 = load ptr, ptr %v.addr, align 8
  %12 = load ptr, ptr %obj.addr, align 8
  %u6 = getelementptr inbounds %struct.RbdEncryptionOptions, ptr %12, i32 0, i32 2
  %13 = load ptr, ptr %errp.addr, align 8
  %call7 = call zeroext i1 @visit_type_RbdEncryptionOptionsLUKSAny_members(ptr noundef %11, ptr noundef %u6, ptr noundef %13)
  store i1 %call7, ptr %retval, align 1
  br label %return

sw.default:                                       ; preds = %if.end
  call void @abort() #3
  unreachable

return:                                           ; preds = %sw.bb5, %sw.bb2, %sw.bb, %if.then
  %14 = load i1, ptr %retval, align 1
  ret i1 %14
}