; Function Attrs: nounwind sspstrong uwtable
define dso_local zeroext i1 @visit_type_RbdEncryptionOptions_members(ptr noundef %v, ptr noundef %obj, ptr noundef %errp) local_unnamed_addr #0 {
entry:
  %value.i.i = alloca i32, align 4
  %has_parent.i = alloca i8, align 1
  call void @llvm.lifetime.start.p0(i64 1, ptr nonnull %has_parent.i)
  %parent.i = getelementptr inbounds nuw i8, ptr %obj, i64 8
  %0 = load ptr, ptr %parent.i, align 8
  %tobool.i = icmp ne ptr %0, null
  %frombool.i = zext i1 %tobool.i to i8
  store i8 %frombool.i, ptr %has_parent.i, align 1
  call void @llvm.lifetime.start.p0(i64 4, ptr nonnull %value.i.i)
  %1 = load i32, ptr %obj, align 4
  store i32 %1, ptr %value.i.i, align 4
  %call.i.i = call zeroext i1 @visit_type_enum(ptr noundef %v, ptr noundef nonnull @.str.10, ptr noundef nonnull %value.i.i, ptr noundef nonnull @RbdImageEncryptionFormat_lookup, ptr noundef %errp) #5
  %2 = load i32, ptr %value.i.i, align 4
  store i32 %2, ptr %obj, align 4
  call void @llvm.lifetime.end.p0(i64 4, ptr nonnull %value.i.i)
  br i1 %call.i.i, label %if.end.i, label %visit_type_q_obj_RbdEncryptionOptions_base_members.exit.thread

if.end.i:                                         ; preds = %entry
  %call2.i = call zeroext i1 @visit_optional(ptr noundef %v, ptr noundef nonnull @.str.174, ptr noundef nonnull %has_parent.i) #5
  br i1 %call2.i, label %if.then3.i, label %if.end

if.then3.i:                                       ; preds = %if.end.i
  %call5.i = call zeroext i1 @visit_type_RbdEncryptionOptions(ptr noundef %v, ptr noundef nonnull @.str.174, ptr noundef nonnull %parent.i, ptr noundef %errp)
  br i1 %call5.i, label %if.end, label %visit_type_q_obj_RbdEncryptionOptions_base_members.exit.thread

visit_type_q_obj_RbdEncryptionOptions_base_members.exit.thread: ; preds = %entry, %if.then3.i
  call void @llvm.lifetime.end.p0(i64 1, ptr nonnull %has_parent.i)
  br label %return

if.end:                                           ; preds = %if.then3.i, %if.end.i
  call void @llvm.lifetime.end.p0(i64 1, ptr nonnull %has_parent.i)
  %3 = load i32, ptr %obj, align 8
  switch i32 %3, label %sw.default [
    i32 0, label %sw.bb
    i32 1, label %sw.bb2
    i32 2, label %sw.bb5
  ]

sw.bb:                                            ; preds = %if.end
  %u = getelementptr inbounds nuw i8, ptr %obj, i64 16
  %call.i.i11 = call zeroext i1 @visit_type_str(ptr noundef %v, ptr noundef nonnull @.str.283, ptr noundef nonnull %u, ptr noundef %errp) #5
  br label %return

sw.bb2:                                           ; preds = %if.end
  %u3 = getelementptr inbounds nuw i8, ptr %obj, i64 16
  %call.i.i12 = call zeroext i1 @visit_type_str(ptr noundef %v, ptr noundef nonnull @.str.283, ptr noundef nonnull %u3, ptr noundef %errp) #5
  br label %return

sw.bb5:                                           ; preds = %if.end
  %u6 = getelementptr inbounds nuw i8, ptr %obj, i64 16
  %call.i.i13 = call zeroext i1 @visit_type_str(ptr noundef %v, ptr noundef nonnull @.str.283, ptr noundef nonnull %u6, ptr noundef %errp) #5
  br label %return

sw.default:                                       ; preds = %if.end
  call void @abort() #6
  unreachable

return:                                           ; preds = %visit_type_q_obj_RbdEncryptionOptions_base_members.exit.thread, %sw.bb5, %sw.bb2, %sw.bb
  %retval.0 = phi i1 [ %call.i.i13, %sw.bb5 ], [ %call.i.i12, %sw.bb2 ], [ %call.i.i11, %sw.bb ], [ false, %visit_type_q_obj_RbdEncryptionOptions_base_members.exit.thread ]
  ret i1 %retval.0
}